; Function Attrs: nounwind uwtable
define dso_local void @expr_yypush_buffer_state(ptr noundef %0, ptr noundef captures(none) %1) local_unnamed_addr #0 {
  %3 = icmp eq ptr %0, null
  br i1 %3, label %73, label %4

4:                                                ; preds = %2
  %5 = getelementptr inbounds nuw i8, ptr %1, i64 40
  %6 = load ptr, ptr %5, align 8
  %.not.i = icmp eq ptr %6, null
  br i1 %.not.i, label %7, label %13

7:                                                ; preds = %4
  %8 = tail call noalias noundef dereferenceable_or_null(8) ptr @malloc(i64 noundef 8) #29
  store ptr %8, ptr %5, align 8
  %.not28.i = icmp eq ptr %8, null
  br i1 %.not28.i, label %9, label %10

9:                                                ; preds = %7
  tail call fastcc void @yy_fatal_error(ptr noundef nonnull @.str.15) #30
  unreachable

10:                                               ; preds = %7
  store i64 0, ptr %8, align 8
  %11 = getelementptr inbounds nuw i8, ptr %1, i64 32
  store i64 1, ptr %11, align 8
  %12 = getelementptr inbounds nuw i8, ptr %1, i64 24
  store i64 0, ptr %12, align 8
  br label %expr_yyensure_buffer_stack.exit

13:                                               ; preds = %4
  %14 = getelementptr inbounds nuw i8, ptr %1, i64 24
  %15 = load i64, ptr %14, align 8
  %16 = getelementptr inbounds nuw i8, ptr %1, i64 32
  %17 = load i64, ptr %16, align 8
  %18 = add i64 %17, -1
  %.not29.i = icmp ult i64 %15, %18
  br i1 %.not29.i, label %expr_yyensure_buffer_stack.exit, label %19

19:                                               ; preds = %13
  %20 = add i64 %17, 8
  %21 = shl i64 %20, 3
  %22 = tail call noalias noundef ptr @realloc(ptr noundef nonnull %6, i64 noundef %21) #31
  store ptr %22, ptr %5, align 8
  %.not30.i = icmp eq ptr %22, null
  br i1 %.not30.i, label %23, label %24

23:                                               ; preds = %19
  tail call fastcc void @yy_fatal_error(ptr noundef nonnull @.str.15) #30
  unreachable

24:                                               ; preds = %19
  %25 = load i64, ptr %16, align 8
  %26 = getelementptr inbounds nuw ptr, ptr %22, i64 %25
  tail call void @llvm.memset.p0.i64(ptr noundef nonnull align 8 dereferenceable(64) %26, i8 0, i64 64, i1 false)
  store i64 %20, ptr %16, align 8
  %.pre = load i64, ptr %14, align 8
  br label %expr_yyensure_buffer_stack.exit

expr_yyensure_buffer_stack.exit:                  ; preds = %10, %13, %24
  %27 = phi i64 [ 0, %10 ], [ %15, %13 ], [ %.pre, %24 ]
  %28 = phi ptr [ %8, %10 ], [ %6, %13 ], [ %22, %24 ]
  %29 = getelementptr inbounds nuw i8, ptr %1, i64 24
  %30 = getelementptr inbounds nuw ptr, ptr %28, i64 %27
  %31 = load ptr, ptr %30, align 8
  %.not25 = icmp eq ptr %31, null
  br i1 %.not25, label %.thread, label %32

32:                                               ; preds = %expr_yyensure_buffer_stack.exit
  %33 = getelementptr inbounds nuw i8, ptr %1, i64 48
  %34 = load i8, ptr %33, align 8
  %35 = getelementptr inbounds nuw i8, ptr %1, i64 64
  %36 = load ptr, ptr %35, align 8
  store i8 %34, ptr %36, align 1
  %37 = load ptr, ptr %35, align 8
  %38 = load ptr, ptr %5, align 8
  %39 = load i64, ptr %29, align 8
  %40 = getelementptr inbounds nuw ptr, ptr %38, i64 %39
  %41 = load ptr, ptr %40, align 8
  %42 = getelementptr inbounds nuw i8, ptr %41, i64 16
  store ptr %37, ptr %42, align 8
  %43 = getelementptr inbounds nuw i8, ptr %1, i64 52
  %44 = load i32, ptr %43, align 4
  %45 = load ptr, ptr %5, align 8
  %46 = load i64, ptr %29, align 8
  %47 = getelementptr inbounds nuw ptr, ptr %45, i64 %46
  %48 = load ptr, ptr %47, align 8
  %49 = getelementptr inbounds nuw i8, ptr %48, i64 28
  store i32 %44, ptr %49, align 4
  %.pr.pre = load ptr, ptr %5, align 8
  %.pre30 = load i64, ptr %29, align 8
  %.phi.trans.insert31 = getelementptr inbounds nuw ptr, ptr %.pr.pre, i64 %.pre30
  %.pre32 = load ptr, ptr %.phi.trans.insert31, align 8
  %50 = icmp eq ptr %.pre32, null
  br i1 %50, label %.thread, label %51

51:                                               ; preds = %32
  %52 = add i64 %.pre30, 1
  store i64 %52, ptr %29, align 8
  br label %.thread

.thread:                                          ; preds = %expr_yyensure_buffer_stack.exit, %51, %32
  %.pr36 = phi ptr [ %.pr.pre, %51 ], [ %.pr.pre, %32 ], [ %28, %expr_yyensure_buffer_stack.exit ]
  %53 = phi i64 [ %52, %51 ], [ %.pre30, %32 ], [ %27, %expr_yyensure_buffer_stack.exit ]
  %54 = getelementptr inbounds nuw ptr, ptr %.pr36, i64 %53
  store ptr %0, ptr %54, align 8
  %55 = load ptr, ptr %5, align 8
  %56 = load i64, ptr %29, align 8
  %57 = getelementptr inbounds nuw ptr, ptr %55, i64 %56
  %58 = load ptr, ptr %57, align 8
  %59 = getelementptr inbounds nuw i8, ptr %58, i64 28
  %60 = load i32, ptr %59, align 4
  %61 = getelementptr inbounds nuw i8, ptr %1, i64 52
  store i32 %60, ptr %61, align 4
  %62 = load ptr, ptr %57, align 8
  %63 = getelementptr inbounds nuw i8, ptr %62, i64 16
  %64 = load ptr, ptr %63, align 8
  %65 = getelementptr inbounds nuw i8, ptr %1, i64 64
  store ptr %64, ptr %65, align 8
  %66 = getelementptr inbounds nuw i8, ptr %1, i64 128
  store ptr %64, ptr %66, align 8
  %67 = load ptr, ptr %57, align 8
  %68 = load ptr, ptr %67, align 8
  %69 = getelementptr inbounds nuw i8, ptr %1, i64 8
  store ptr %68, ptr %69, align 8
  %70 = load i8, ptr %64, align 1
  %71 = getelementptr inbounds nuw i8, ptr %1, i64 48
  store i8 %70, ptr %71, align 8
  %72 = getelementptr inbounds nuw i8, ptr %1, i64 80
  store i32 1, ptr %72, align 8
  br label %73

73:                                               ; preds = %2, %.thread
  ret void
}